target datalayout = "e-m:e-p270:32:32-p271:32:32-p272:64:64-i64:64-i128:128-f80:128-n8:16:32:64-S128"
target triple = "x86_64-pc-linux-gnu"

; Function Attrs: inlinehint nounwind uwtable
define internal ptr @ossl_check_const_X509_CRL_sk_type(ptr noundef %0) #7 {
  %2 = alloca ptr, align 8
  store ptr %0, ptr %2, align 8, !tbaa !98
  %3 = load ptr, ptr %2, align 8, !tbaa !98
  ret ptr %3
}

; Function Attrs: nounwind uwtable
define internal i32 @add_crls_store(ptr noundef %0, ptr noundef %1) #0 {
  %3 = alloca ptr, align 8
  %4 = alloca ptr, align 8
  %5 = alloca ptr, align 8
  %6 = alloca i32, align 4
  %7 = alloca i32, align 4
  store ptr %0, ptr %3, align 8, !tbaa !100
  store ptr %1, ptr %4, align 8, !tbaa !98
  call void @llvm.lifetime.start.p0(i64 8, ptr %5) #10
  call void @llvm.lifetime.start.p0(i64 4, ptr %6) #10
  call void @llvm.lifetime.start.p0(i64 4, ptr %7) #10
  store i32 1, ptr %7, align 4, !tbaa !3
  store i32 0, ptr %6, align 4, !tbaa !3
  br label %8

8:                                                ; preds = %25, %2
  %9 = load i32, ptr %6, align 4, !tbaa !3
  %10 = load ptr, ptr %4, align 8, !tbaa !98
  %11 = call ptr @ossl_check_const_X509_CRL_sk_type(ptr noundef %10)
  %12 = call i32 @OPENSSL_sk_num(ptr noundef %11)
  %13 = icmp slt i32 %9, %12
  br i1 %13, label %14, label %28

14:                                               ; preds = %8
  %15 = load ptr, ptr %4, align 8, !tbaa !98
  %16 = call ptr @ossl_check_const_X509_CRL_sk_type(ptr noundef %15)
  %17 = load i32, ptr %6, align 4, !tbaa !3
  %18 = call ptr @OPENSSL_sk_value(ptr noundef %16, i32 noundef %17)
  store ptr %18, ptr %5, align 8, !tbaa !102
  %19 = load ptr, ptr %3, align 8, !tbaa !100
  %20 = load ptr, ptr %5, align 8, !tbaa !102
  %21 = call i32 @X509_STORE_add_crl(ptr noundef %19, ptr noundef %20)
  %22 = icmp ne i32 %21, 0
  br i1 %22, label %24, label %23

23:                                               ; preds = %14
  store i32 0, ptr %7, align 4, !tbaa !3
  br label %24

24:                                               ; preds = %23, %14
  br label %25

25:                                               ; preds = %24
  %26 = load i32, ptr %6, align 4, !tbaa !3
  %27 = add nsw i32 %26, 1
  store i32 %27, ptr %6, align 4, !tbaa !3
  br label %8, !llvm.loop !104

28:                                               ; preds = %8
  %29 = load i32, ptr %7, align 4, !tbaa !3
  call void @llvm.lifetime.end.p0(i64 4, ptr %7) #10
  call void @llvm.lifetime.end.p0(i64 4, ptr %6) #10
  call void @llvm.lifetime.end.p0(i64 8, ptr %5) #10
  ret i32 %29
}

; Function Attrs: nounwind uwtable
define i32 @ssl_ctx_add_crls(ptr noundef %0, ptr noundef %1, i32 noundef %2) #0 {
  %4 = alloca ptr, align 8
  %5 = alloca ptr, align 8
  %6 = alloca i32, align 4
  %7 = alloca ptr, align 8
  store ptr %0, ptr %4, align 8, !tbaa !19
  store ptr %1, ptr %5, align 8, !tbaa !98
  store i32 %2, ptr %6, align 4, !tbaa !3
  call void @llvm.lifetime.start.p0(i64 8, ptr %7) #10
  %8 = load ptr, ptr %4, align 8, !tbaa !19
  %9 = call ptr @SSL_CTX_get_cert_store(ptr noundef %8)
  store ptr %9, ptr %7, align 8, !tbaa !100
  %10 = load ptr, ptr %7, align 8, !tbaa !100
  %11 = load ptr, ptr %5, align 8, !tbaa !98
  %12 = call i32 @add_crls_store(ptr noundef %10, ptr noundef %11)
  %13 = load i32, ptr %6, align 4, !tbaa !3
  %14 = icmp ne i32 %13, 0
  br i1 %14, label %15, label %17

15:                                               ; preds = %3
  %16 = load ptr, ptr %7, align 8, !tbaa !100
  call void @store_setup_crl_download(ptr noundef %16)
  br label %17

17:                                               ; preds = %15, %3
  call void @llvm.lifetime.end.p0(i64 8, ptr %7) #10
  ret i32 1
}