; Function Attrs: nounwind uwtable
define noundef i32 @ssl_ctx_add_crls(ptr noundef %0, ptr noundef %1, i32 noundef %2) local_unnamed_addr #0 {
  %4 = tail call ptr @SSL_CTX_get_cert_store(ptr noundef %0) #6
  %5 = tail call i32 @OPENSSL_sk_num(ptr noundef %1) #6
  %6 = icmp sgt i32 %5, 0
  br i1 %6, label %.lr.ph.i, label %add_crls_store.exit

.lr.ph.i:                                         ; preds = %3, %.lr.ph.i
  %.078.i = phi i32 [ %9, %.lr.ph.i ], [ 0, %3 ]
  %7 = tail call ptr @OPENSSL_sk_value(ptr noundef %1, i32 noundef %.078.i) #6
  %8 = tail call i32 @X509_STORE_add_crl(ptr noundef %4, ptr noundef %7) #6
  %9 = add nuw nsw i32 %.078.i, 1
  %10 = tail call i32 @OPENSSL_sk_num(ptr noundef %1) #6
  %11 = icmp slt i32 %9, %10
  br i1 %11, label %.lr.ph.i, label %add_crls_store.exit, !llvm.loop !70

add_crls_store.exit:                              ; preds = %.lr.ph.i, %3
  %.not = icmp eq i32 %2, 0
  br i1 %.not, label %13, label %12

12:                                               ; preds = %add_crls_store.exit
  tail call void @store_setup_crl_download(ptr noundef %4) #6
  br label %13

13:                                               ; preds = %12, %add_crls_store.exit
  ret i32 1
}